; ModuleID = '39/326.c'
source_filename = "39/326.c"
target datalayout = "e-m:e-p270:32:32-p271:32:32-p272:64:64-i64:64-f80:128-n8:16:32:64-S128"
target triple = "x86_64-pc-linux-gnu"

%struct.student = type { [20 x i8], i32, i32, i8, i8, i32, i32, %struct.student* }

@.str = private unnamed_addr constant [3 x i8] c"%d\00", align 1
@.str.1 = private unnamed_addr constant [18 x i8] c"%s %d %d %c %c %d\00", align 1
@.str.2 = private unnamed_addr constant [4 x i8] c"%s\0A\00", align 1
@.str.3 = private unnamed_addr constant [4 x i8] c"%d\0A\00", align 1

; Function Attrs: noinline nounwind uwtable
define dso_local void @main() #0 {
  %1 = alloca i32, align 4
  %2 = alloca i32, align 4
  %3 = alloca i32, align 4
  %4 = alloca i32, align 4
  %5 = alloca %struct.student*, align 8
  %6 = alloca %struct.student*, align 8
  %7 = alloca %struct.student*, align 8
  %8 = alloca i32, align 4
  store i32 0, i32* %2, align 4
  store i32 0, i32* %1, align 4
  %9 = call noalias i8* @malloc(i64 48) #3
  %10 = bitcast i8* %9 to %struct.student*
  store %struct.student* %10, %struct.student** %6, align 8
  store %struct.student* %10, %struct.student** %5, align 8
  store %struct.student* %10, %struct.student** %7, align 8
  %11 = call i32 (i8*, ...) @__isoc99_scanf(i8* getelementptr inbounds ([3 x i8], [3 x i8]* @.str, i64 0, i64 0), i32* %8)
  store i32 0, i32* %3, align 4
  br label %12

12:                                               ; preds = %121, %0
  %13 = load i32, i32* %3, align 4
  %14 = load i32, i32* %8, align 4
  %15 = icmp slt i32 %13, %14
  br i1 %15, label %16, label %124

16:                                               ; preds = %12
  %17 = load %struct.student*, %struct.student** %5, align 8
  %18 = getelementptr inbounds %struct.student, %struct.student* %17, i32 0, i32 0
  %19 = getelementptr inbounds [20 x i8], [20 x i8]* %18, i64 0, i64 0
  %20 = load %struct.student*, %struct.student** %5, align 8
  %21 = getelementptr inbounds %struct.student, %struct.student* %20, i32 0, i32 1
  %22 = load %struct.student*, %struct.student** %5, align 8
  %23 = getelementptr inbounds %struct.student, %struct.student* %22, i32 0, i32 2
  %24 = load %struct.student*, %struct.student** %5, align 8
  %25 = getelementptr inbounds %struct.student, %struct.student* %24, i32 0, i32 3
  %26 = load %struct.student*, %struct.student** %5, align 8
  %27 = getelementptr inbounds %struct.student, %struct.student* %26, i32 0, i32 4
  %28 = load %struct.student*, %struct.student** %5, align 8
  %29 = getelementptr inbounds %struct.student, %struct.student* %28, i32 0, i32 5
  %30 = call i32 (i8*, ...) @__isoc99_scanf(i8* getelementptr inbounds ([18 x i8], [18 x i8]* @.str.1, i64 0, i64 0), i8* %19, i32* %21, i32* %23, i8* %25, i8* %27, i32* %29)
  %31 = load %struct.student*, %struct.student** %5, align 8
  %32 = getelementptr inbounds %struct.student, %struct.student* %31, i32 0, i32 6
  store i32 0, i32* %32, align 4
  %33 = load %struct.student*, %struct.student** %5, align 8
  %34 = getelementptr inbounds %struct.student, %struct.student* %33, i32 0, i32 1
  %35 = load i32, i32* %34, align 4
  %36 = icmp sgt i32 %35, 80
  br i1 %36, label %37, label %47

37:                                               ; preds = %16
  %38 = load %struct.student*, %struct.student** %5, align 8
  %39 = getelementptr inbounds %struct.student, %struct.student* %38, i32 0, i32 5
  %40 = load i32, i32* %39, align 8
  %41 = icmp sge i32 %40, 1
  br i1 %41, label %42, label %47

42:                                               ; preds = %37
  %43 = load %struct.student*, %struct.student** %5, align 8
  %44 = getelementptr inbounds %struct.student, %struct.student* %43, i32 0, i32 6
  %45 = load i32, i32* %44, align 4
  %46 = add nsw i32 %45, 8000
  store i32 %46, i32* %44, align 4
  br label %47

47:                                               ; preds = %42, %37, %16
  %48 = load %struct.student*, %struct.student** %5, align 8
  %49 = getelementptr inbounds %struct.student, %struct.student* %48, i32 0, i32 1
  %50 = load i32, i32* %49, align 4
  %51 = icmp sgt i32 %50, 85
  br i1 %51, label %52, label %62

52:                                               ; preds = %47
  %53 = load %struct.student*, %struct.student** %5, align 8
  %54 = getelementptr inbounds %struct.student, %struct.student* %53, i32 0, i32 2
  %55 = load i32, i32* %54, align 8
  %56 = icmp sgt i32 %55, 80
  br i1 %56, label %57, label %62

57:                                               ; preds = %52
  %58 = load %struct.student*, %struct.student** %5, align 8
  %59 = getelementptr inbounds %struct.student, %struct.student* %58, i32 0, i32 6
  %60 = load i32, i32* %59, align 4
  %61 = add nsw i32 %60, 4000
  store i32 %61, i32* %59, align 4
  br label %62

62:                                               ; preds = %57, %52, %47
  %63 = load %struct.student*, %struct.student** %5, align 8
  %64 = getelementptr inbounds %struct.student, %struct.student* %63, i32 0, i32 1
  %65 = load i32, i32* %64, align 4
  %66 = icmp sgt i32 %65, 90
  br i1 %66, label %67, label %72

67:                                               ; preds = %62
  %68 = load %struct.student*, %struct.student** %5, align 8
  %69 = getelementptr inbounds %struct.student, %struct.student* %68, i32 0, i32 6
  %70 = load i32, i32* %69, align 4
  %71 = add nsw i32 %70, 2000
  store i32 %71, i32* %69, align 4
  br label %72

72:                                               ; preds = %67, %62
  %73 = load %struct.student*, %struct.student** %5, align 8
  %74 = getelementptr inbounds %struct.student, %struct.student* %73, i32 0, i32 4
  %75 = load i8, i8* %74, align 1
  %76 = sext i8 %75 to i32
  %77 = icmp eq i32 %76, 89
  br i1 %77, label %78, label %88

78:                                               ; preds = %72
  %79 = load %struct.student*, %struct.student** %5, align 8
  %80 = getelementptr inbounds %struct.student, %struct.student* %79, i32 0, i32 1
  %81 = load i32, i32* %80, align 4
  %82 = icmp sgt i32 %81, 85
  br i1 %82, label %83, label %88

83:                                               ; preds = %78
  %84 = load %struct.student*, %struct.student** %5, align 8
  %85 = getelementptr inbounds %struct.student, %struct.student* %84, i32 0, i32 6
  %86 = load i32, i32* %85, align 4
  %87 = add nsw i32 %86, 1000
  store i32 %87, i32* %85, align 4
  br label %88

88:                                               ; preds = %83, %78, %72
  %89 = load %struct.student*, %struct.student** %5, align 8
  %90 = getelementptr inbounds %struct.student, %struct.student* %89, i32 0, i32 3
  %91 = load i8, i8* %90, align 4
  %92 = sext i8 %91 to i32
  %93 = icmp eq i32 %92, 89
  br i1 %93, label %94, label %104

94:                                               ; preds = %88
  %95 = load %struct.student*, %struct.student** %5, align 8
  %96 = getelementptr inbounds %struct.student, %struct.student* %95, i32 0, i32 2
  %97 = load i32, i32* %96, align 8
  %98 = icmp sgt i32 %97, 80
  br i1 %98, label %99, label %104

99:                                               ; preds = %94
  %100 = load %struct.student*, %struct.student** %5, align 8
  %101 = getelementptr inbounds %struct.student, %struct.student* %100, i32 0, i32 6
  %102 = load i32, i32* %101, align 4
  %103 = add nsw i32 %102, 850
  store i32 %103, i32* %101, align 4
  br label %104

104:                                              ; preds = %99, %94, %88
  %105 = load %struct.student*, %struct.student** %5, align 8
  %106 = getelementptr inbounds %struct.student, %struct.student* %105, i32 0, i32 6
  %107 = load i32, i32* %106, align 4
  %108 = load i32, i32* %1, align 4
  %109 = add nsw i32 %108, %107
  store i32 %109, i32* %1, align 4
  %110 = load i32, i32* %3, align 4
  %111 = icmp eq i32 %110, 0
  br i1 %111, label %112, label %114

112:                                              ; preds = %104
  %113 = load %struct.student*, %struct.student** %5, align 8
  store %struct.student* %113, %struct.student** %6, align 8
  br label %114

114:                                              ; preds = %112, %104
  %115 = load %struct.student*, %struct.student** %5, align 8
  %116 = load %struct.student*, %struct.student** %7, align 8
  %117 = getelementptr inbounds %struct.student, %struct.student* %116, i32 0, i32 7
  store %struct.student* %115, %struct.student** %117, align 8
  %118 = load %struct.student*, %struct.student** %5, align 8
  store %struct.student* %118, %struct.student** %7, align 8
  %119 = call noalias i8* @malloc(i64 48) #3
  %120 = bitcast i8* %119 to %struct.student*
  store %struct.student* %120, %struct.student** %5, align 8
  br label %121

121:                                              ; preds = %114
  %122 = load i32, i32* %3, align 4
  %123 = add nsw i32 %122, 1
  store i32 %123, i32* %3, align 4
  br label %12

124:                                              ; preds = %12
  store %struct.student* null, %struct.student** %7, align 8
  %125 = load %struct.student*, %struct.student** %6, align 8
  store %struct.student* %125, %struct.student** %5, align 8
  store i32 0, i32* %3, align 4
  br label %126

126:                                              ; preds = %146, %124
  %127 = load i32, i32* %3, align 4
  %128 = load i32, i32* %8, align 4
  %129 = icmp slt i32 %127, %128
  br i1 %129, label %130, label %149

130:                                              ; preds = %126
  %131 = load %struct.student*, %struct.student** %5, align 8
  %132 = getelementptr inbounds %struct.student, %struct.student* %131, i32 0, i32 6
  %133 = load i32, i32* %132, align 4
  store i32 %133, i32* %4, align 4
  %134 = load i32, i32* %4, align 4
  %135 = load i32, i32* %2, align 4
  %136 = icmp sgt i32 %134, %135
  br i1 %136, label %137, label %139

137:                                              ; preds = %130
  %138 = load i32, i32* %4, align 4
  br label %141

139:                                              ; preds = %130
  %140 = load i32, i32* %2, align 4
  br label %141

141:                                              ; preds = %139, %137
  %142 = phi i32 [ %138, %137 ], [ %140, %139 ]
  store i32 %142, i32* %2, align 4
  %143 = load %struct.student*, %struct.student** %5, align 8
  %144 = getelementptr inbounds %struct.student, %struct.student* %143, i32 0, i32 7
  %145 = load %struct.student*, %struct.student** %144, align 8
  store %struct.student* %145, %struct.student** %5, align 8
  br label %146

146:                                              ; preds = %141
  %147 = load i32, i32* %3, align 4
  %148 = add nsw i32 %147, 1
  store i32 %148, i32* %3, align 4
  br label %126

149:                                              ; preds = %126
  %150 = load %struct.student*, %struct.student** %6, align 8
  store %struct.student* %150, %struct.student** %5, align 8
  store i32 0, i32* %3, align 4
  br label %151

151:                                              ; preds = %170, %149
  %152 = load i32, i32* %3, align 4
  %153 = load i32, i32* %8, align 4
  %154 = icmp slt i32 %152, %153
  br i1 %154, label %155, label %173

155:                                              ; preds = %151
  %156 = load %struct.student*, %struct.student** %5, align 8
  %157 = getelementptr inbounds %struct.student, %struct.student* %156, i32 0, i32 6
  %158 = load i32, i32* %157, align 4
  %159 = load i32, i32* %2, align 4
  %160 = icmp eq i32 %158, %159
  br i1 %160, label %161, label %166

161:                                              ; preds = %155
  %162 = load %struct.student*, %struct.student** %5, align 8
  %163 = getelementptr inbounds %struct.student, %struct.student* %162, i32 0, i32 0
  %164 = getelementptr inbounds [20 x i8], [20 x i8]* %163, i64 0, i64 0
  %165 = call i32 (i8*, ...) @printf(i8* getelementptr inbounds ([4 x i8], [4 x i8]* @.str.2, i64 0, i64 0), i8* %164)
  br label %173

166:                                              ; preds = %155
  %167 = load %struct.student*, %struct.student** %5, align 8
  %168 = getelementptr inbounds %struct.student, %struct.student* %167, i32 0, i32 7
  %169 = load %struct.student*, %struct.student** %168, align 8
  store %struct.student* %169, %struct.student** %5, align 8
  br label %170

170:                                              ; preds = %166
  %171 = load i32, i32* %3, align 4
  %172 = add nsw i32 %171, 1
  store i32 %172, i32* %3, align 4
  br label %151

173:                                              ; preds = %161, %151
  %174 = load i32, i32* %2, align 4
  %175 = call i32 (i8*, ...) @printf(i8* getelementptr inbounds ([4 x i8], [4 x i8]* @.str.3, i64 0, i64 0), i32 %174)
  %176 = load i32, i32* %1, align 4
  %177 = call i32 (i8*, ...) @printf(i8* getelementptr inbounds ([3 x i8], [3 x i8]* @.str, i64 0, i64 0), i32 %176)
  ret void
}

; Function Attrs: nounwind
declare dso_local noalias i8* @malloc(i64) #1

declare dso_local i32 @__isoc99_scanf(i8*, ...) #2

declare dso_local i32 @printf(i8*, ...) #2


!llvm.module.flags = !{!0}
!llvm.ident = !{!1}

!0 = !{i32 1, !"wchar_size", i32 4}
!1 = !{!"clang version 10.0.0-4ubuntu1 "}
